; dlltool --base-file C:\DOCUME~1\Tim\LOCALS~1\Temp/cca01976.base --output-exp TTBlue.exp --dllname TTBlue.dll --output-def build/libTTBlue.def --add-stdcall-alias --exclude-symbol=DllMainCRTStartup@12 --def C:\DOCUME~1\Tim\LOCALS~1\Temp/cca01976.def --output-lib build/libTTBlue.a
EXPORTS
;	TTAttribute::defaultGetter(TTValue&, TTAttribute const&)
	_ZN11TTAttribute13defaultGetterER7TTValueRKS_ @ 1
;	TTAttribute::defaultSetter(TTValue const&, TTAttribute const&)
	_ZN11TTAttribute13defaultSetterERK7TTValueRKS_ @ 2
;	TTAttribute::TTAttribute(TTSymbol const&, TTDataType, void*)
	_ZN11TTAttributeC1ERK8TTSymbol10TTDataTypePv @ 3
;	TTAttribute::TTAttribute(TTSymbol const&, TTDataType, void*, short (TTObject::*)(TTValue&, TTAttribute const&))
	_ZN11TTAttributeC1ERK8TTSymbol10TTDataTypePvM8TTObjectFsR7TTValueRKS_E @ 4
;	TTAttribute::TTAttribute(TTSymbol const&, TTDataType, void*, short (TTObject::*)(TTValue&, TTAttribute const&), short (TTObject::*)(TTValue const&, TTAttribute const&))
	_ZN11TTAttributeC1ERK8TTSymbol10TTDataTypePvM8TTObjectFsR7TTValueRKS_EMS5_FsRKS6_S9_E @ 5
;	TTAttribute::TTAttribute(TTSymbol const&, TTDataType, void*, short (TTObject::*)(TTValue const&, TTAttribute const&))
	_ZN11TTAttributeC1ERK8TTSymbol10TTDataTypePvM8TTObjectFsRK7TTValueRKS_E @ 6
;	TTAttribute::TTAttribute(TTSymbol const&, TTDataType, void*)
	_ZN11TTAttributeC2ERK8TTSymbol10TTDataTypePv @ 7
;	TTAttribute::TTAttribute(TTSymbol const&, TTDataType, void*, short (TTObject::*)(TTValue&, TTAttribute const&))
	_ZN11TTAttributeC2ERK8TTSymbol10TTDataTypePvM8TTObjectFsR7TTValueRKS_E @ 8
;	TTAttribute::TTAttribute(TTSymbol const&, TTDataType, void*, short (TTObject::*)(TTValue&, TTAttribute const&), short (TTObject::*)(TTValue const&, TTAttribute const&))
	_ZN11TTAttributeC2ERK8TTSymbol10TTDataTypePvM8TTObjectFsR7TTValueRKS_EMS5_FsRKS6_S9_E @ 9
;	TTAttribute::TTAttribute(TTSymbol const&, TTDataType, void*, short (TTObject::*)(TTValue const&, TTAttribute const&))
	_ZN11TTAttributeC2ERK8TTSymbol10TTDataTypePvM8TTObjectFsRK7TTValueRKS_E @ 10
;	TTAttribute::~TTAttribute()
	_ZN11TTAttributeD0Ev @ 11
;	TTAttribute::~TTAttribute()
	_ZN11TTAttributeD1Ev @ 12
;	TTAttribute::~TTAttribute()
	_ZN11TTAttributeD2Ev @ 13
;	TTCrossfade::processCalc(TTAudioSignal&, TTAudioSignal&)
	_ZN11TTCrossfade11processCalcER13TTAudioSignalS1_ @ 14
;	TTCrossfade::processLinear(TTAudioSignal&, TTAudioSignal&)
	_ZN11TTCrossfade13processLinearER13TTAudioSignalS1_ @ 15
;	TTCrossfade::processLookup(TTAudioSignal&, TTAudioSignal&)
	_ZN11TTCrossfade13processLookupER13TTAudioSignalS1_ @ 16
;	TTCrossfade::setProcessPointers()
	_ZN11TTCrossfade18setProcessPointersEv @ 17
;	TTCrossfade::setMode(TTValue const&)
	_ZN11TTCrossfade7setModeERK7TTValue @ 18
;	TTCrossfade::setShape(TTValue const&)
	_ZN11TTCrossfade8setShapeERK7TTValue @ 19
;	TTCrossfade::TTCrossfade(unsigned char)
	_ZN11TTCrossfadeC1Eh @ 20
;	TTCrossfade::TTCrossfade(unsigned char)
	_ZN11TTCrossfadeC2Eh @ 21
;	TTCrossfade::~TTCrossfade()
	_ZN11TTCrossfadeD0Ev @ 22
;	TTCrossfade::~TTCrossfade()
	_ZN11TTCrossfadeD1Ev @ 23
;	TTCrossfade::~TTCrossfade()
	_ZN11TTCrossfadeD2Ev @ 24
;	TTOverdrive::processMode0(TTAudioSignal&, TTAudioSignal&)
	_ZN11TTOverdrive12processMode0ER13TTAudioSignalS1_ @ 25
;	TTOverdrive::processMode1(TTAudioSignal&, TTAudioSignal&)
	_ZN11TTOverdrive12processMode1ER13TTAudioSignalS1_ @ 26
;	TTOverdrive::setDCBlocker(TTValue const&)
	_ZN11TTOverdrive12setDCBlockerERK7TTValue @ 27
;	TTOverdrive::updateMaxNumChannels()
	_ZN11TTOverdrive20updateMaxNumChannelsEv @ 28
;	TTOverdrive::clear()
	_ZN11TTOverdrive5clearEv @ 29
;	TTOverdrive::setMode(TTValue const&)
	_ZN11TTOverdrive7setModeERK7TTValue @ 30
;	TTOverdrive::setDrive(TTValue const&)
	_ZN11TTOverdrive8setDriveERK7TTValue @ 31
;	TTOverdrive::getPreamp(TTValue&)
	_ZN11TTOverdrive9getPreampER7TTValue @ 32
;	TTOverdrive::setPreamp(TTValue const&)
	_ZN11TTOverdrive9setPreampERK7TTValue @ 33
;	TTOverdrive::TTOverdrive(unsigned char)
	_ZN11TTOverdriveC1Eh @ 34
;	TTOverdrive::TTOverdrive(unsigned char)
	_ZN11TTOverdriveC2Eh @ 35
;	TTOverdrive::~TTOverdrive()
	_ZN11TTOverdriveD0Ev @ 36
;	TTOverdrive::~TTOverdrive()
	_ZN11TTOverdriveD1Ev @ 37
;	TTOverdrive::~TTOverdrive()
	_ZN11TTOverdriveD2Ev @ 38
;	TTAudioObject::dbToLinear(float)
	_ZN13TTAudioObject10dbToLinearEf @ 39
;	TTAudioObject::linearToDb(float)
	_ZN13TTAudioObject10linearToDbEf @ 40
;	TTAudioObject::setProcess(short (TTAudioObject::*)(TTAudioSignal&, TTAudioSignal&))
	_ZN13TTAudioObject10setProcessEMS_FsR13TTAudioSignalS1_E @ 41
;	TTAudioObject::bypassProcess(TTAudioSignal&, TTAudioSignal&)
	_ZN13TTAudioObject13bypassProcessER13TTAudioSignalS1_ @ 42
;	TTAudioObject::hertzToRadians(double)
	_ZN13TTAudioObject14hertzToRadiansEd @ 43
;	TTAudioObject::radiansToHertz(double)
	_ZN13TTAudioObject14radiansToHertzEd @ 44
;	TTAudioObject::decayToFeedback(float, float)
	_ZN13TTAudioObject15decayToFeedbackEff @ 45
;	TTAudioObject::feedbackToDecay(float, float)
	_ZN13TTAudioObject15feedbackToDecayEff @ 46
;	TTAudioObject::degreesToRadians(double)
	_ZN13TTAudioObject16degreesToRadiansEd @ 47
;	TTAudioObject::radiansToDegrees(double)
	_ZN13TTAudioObject16radiansToDegreesEd @ 48
;	TTAudioObject::setMaxNumChannels(TTValue const&)
	_ZN13TTAudioObject17setMaxNumChannelsERK7TTValue @ 49
;	TTAudioObject::prime(unsigned long)
	_ZN13TTAudioObject5primeEm @ 50
;	TTAudioObject::setSr(TTValue const&)
	_ZN13TTAudioObject5setSrERK7TTValue @ 51
;	TTAudioObject::deviate(float)
	_ZN13TTAudioObject7deviateEf @ 52
;	TTAudioObject::process(TTAudioSignal&)
	_ZN13TTAudioObject7processER13TTAudioSignal @ 53
;	TTAudioObject::process(TTAudioSignal&, TTAudioSignal&)
	_ZN13TTAudioObject7processER13TTAudioSignalS1_ @ 54
;	TTAudioObject::globalSr
	_ZN13TTAudioObject8globalSrE @ 55 DATA
;	TTAudioObject::setBypass(TTValue const&)
	_ZN13TTAudioObject9setBypassERK7TTValue @ 56
;	TTAudioObject::TTAudioObject(unsigned char)
	_ZN13TTAudioObjectC1Eh @ 57
;	TTAudioObject::TTAudioObject(unsigned char)
	_ZN13TTAudioObjectC2Eh @ 58
;	TTAudioObject::~TTAudioObject()
	_ZN13TTAudioObjectD0Ev @ 59
;	TTAudioObject::~TTAudioObject()
	_ZN13TTAudioObjectD1Ev @ 60
;	TTAudioObject::~TTAudioObject()
	_ZN13TTAudioObjectD2Ev @ 61
;	TTAudioSignal::getMinChannelCount(TTAudioSignal&, TTAudioSignal&)
	_ZN13TTAudioSignal18getMinChannelCountERS_S0_ @ 62
;	TTAudioSignal::setVector(unsigned char, float*)
	_ZN13TTAudioSignal9setVectorEhPf @ 63
;	TTAudioSignal::TTAudioSignal(unsigned char)
	_ZN13TTAudioSignalC1Eh @ 64
;	TTAudioSignal::TTAudioSignal(unsigned char)
	_ZN13TTAudioSignalC2Eh @ 65
;	TTAudioSignal::~TTAudioSignal()
	_ZN13TTAudioSignalD0Ev @ 66
;	TTAudioSignal::~TTAudioSignal()
	_ZN13TTAudioSignalD1Ev @ 67
;	TTAudioSignal::~TTAudioSignal()
	_ZN13TTAudioSignalD2Ev @ 68
;	TTLowpassOnePole::processAudio(TTAudioSignal&, TTAudioSignal&)
	_ZN16TTLowpassOnePole12processAudioER13TTAudioSignalS1_ @ 69
;	TTLowpassOnePole::setFrequency(TTValue const&)
	_ZN16TTLowpassOnePole12setFrequencyERK7TTValue @ 70
;	TTLowpassOnePole::updateMaxNumChannels()
	_ZN16TTLowpassOnePole20updateMaxNumChannelsEv @ 71
;	TTLowpassOnePole::clear()
	_ZN16TTLowpassOnePole5clearEv @ 72
;	TTLowpassOnePole::updateSr()
	_ZN16TTLowpassOnePole8updateSrEv @ 73
;	TTLowpassOnePole::TTLowpassOnePole(unsigned char)
	_ZN16TTLowpassOnePoleC1Eh @ 74
;	TTLowpassOnePole::TTLowpassOnePole(unsigned char)
	_ZN16TTLowpassOnePoleC2Eh @ 75
;	TTLowpassOnePole::~TTLowpassOnePole()
	_ZN16TTLowpassOnePoleD0Ev @ 76
;	TTLowpassOnePole::~TTLowpassOnePole()
	_ZN16TTLowpassOnePoleD1Ev @ 77
;	TTLowpassOnePole::~TTLowpassOnePole()
	_ZN16TTLowpassOnePoleD2Ev @ 78
;	TTLowpassButterworth2::processAudio(TTAudioSignal&, TTAudioSignal&)
	_ZN21TTLowpassButterworth212processAudioER13TTAudioSignalS1_ @ 79
;	TTLowpassButterworth2::setFrequency(TTValue const&)
	_ZN21TTLowpassButterworth212setFrequencyERK7TTValue @ 80
;	TTLowpassButterworth2::updateMaxNumChannels()
	_ZN21TTLowpassButterworth220updateMaxNumChannelsEv @ 81
;	TTLowpassButterworth2::clear()
	_ZN21TTLowpassButterworth25clearEv @ 82
;	TTLowpassButterworth2::updateSr()
	_ZN21TTLowpassButterworth28updateSrEv @ 83
;	TTLowpassButterworth2::TTLowpassButterworth2(unsigned char)
	_ZN21TTLowpassButterworth2C1Eh @ 84
;	TTLowpassButterworth2::TTLowpassButterworth2(unsigned char)
	_ZN21TTLowpassButterworth2C2Eh @ 85
;	TTLowpassButterworth2::~TTLowpassButterworth2()
	_ZN21TTLowpassButterworth2D0Ev @ 86
;	TTLowpassButterworth2::~TTLowpassButterworth2()
	_ZN21TTLowpassButterworth2D1Ev @ 87
;	TTLowpassButterworth2::~TTLowpassButterworth2()
	_ZN21TTLowpassButterworth2D2Ev @ 88
;	TTBandpassButterworth2::processAudio(TTAudioSignal&, TTAudioSignal&)
	_ZN22TTBandpassButterworth212processAudioER13TTAudioSignalS1_ @ 89
;	TTBandpassButterworth2::setFrequency(TTValue const&)
	_ZN22TTBandpassButterworth212setFrequencyERK7TTValue @ 90
;	TTBandpassButterworth2::updateMaxNumChannels()
	_ZN22TTBandpassButterworth220updateMaxNumChannelsEv @ 91
;	TTBandpassButterworth2::calculateCoefficients()
	_ZN22TTBandpassButterworth221calculateCoefficientsEv @ 92
;	TTBandpassButterworth2::setQ(TTValue const&)
	_ZN22TTBandpassButterworth24setQERK7TTValue @ 93
;	TTBandpassButterworth2::clear()
	_ZN22TTBandpassButterworth25clearEv @ 94
;	TTBandpassButterworth2::updateSr()
	_ZN22TTBandpassButterworth28updateSrEv @ 95
;	TTBandpassButterworth2::TTBandpassButterworth2(unsigned char)
	_ZN22TTBandpassButterworth2C1Eh @ 96
;	TTBandpassButterworth2::TTBandpassButterworth2(unsigned char)
	_ZN22TTBandpassButterworth2C2Eh @ 97
;	TTBandpassButterworth2::~TTBandpassButterworth2()
	_ZN22TTBandpassButterworth2D0Ev @ 98
;	TTBandpassButterworth2::~TTBandpassButterworth2()
	_ZN22TTBandpassButterworth2D1Ev @ 99
;	TTBandpassButterworth2::~TTBandpassButterworth2()
	_ZN22TTBandpassButterworth2D2Ev @ 100
;	TTHighpassButterworth2::processAudio(TTAudioSignal&, TTAudioSignal&)
	_ZN22TTHighpassButterworth212processAudioER13TTAudioSignalS1_ @ 101
;	TTHighpassButterworth2::setFrequency(TTValue const&)
	_ZN22TTHighpassButterworth212setFrequencyERK7TTValue @ 102
;	TTHighpassButterworth2::updateMaxNumChannels()
	_ZN22TTHighpassButterworth220updateMaxNumChannelsEv @ 103
;	TTHighpassButterworth2::clear()
	_ZN22TTHighpassButterworth25clearEv @ 104
;	TTHighpassButterworth2::updateSr()
	_ZN22TTHighpassButterworth28updateSrEv @ 105
;	TTHighpassButterworth2::TTHighpassButterworth2(unsigned char)
	_ZN22TTHighpassButterworth2C1Eh @ 106
;	TTHighpassButterworth2::TTHighpassButterworth2(unsigned char)
	_ZN22TTHighpassButterworth2C2Eh @ 107
;	TTHighpassButterworth2::~TTHighpassButterworth2()
	_ZN22TTHighpassButterworth2D0Ev @ 108
;	TTHighpassButterworth2::~TTHighpassButterworth2()
	_ZN22TTHighpassButterworth2D1Ev @ 109
;	TTHighpassButterworth2::~TTHighpassButterworth2()
	_ZN22TTHighpassButterworth2D2Ev @ 110
;	TTLowpassLinkwitzRiley4::processAudio(TTAudioSignal&, TTAudioSignal&)
	_ZN23TTLowpassLinkwitzRiley412processAudioER13TTAudioSignalS1_ @ 111
;	TTLowpassLinkwitzRiley4::setFrequency(TTValue const&)
	_ZN23TTLowpassLinkwitzRiley412setFrequencyERK7TTValue @ 112
;	TTLowpassLinkwitzRiley4::updateMaxNumChannels()
	_ZN23TTLowpassLinkwitzRiley420updateMaxNumChannelsEv @ 113
;	TTLowpassLinkwitzRiley4::clear()
	_ZN23TTLowpassLinkwitzRiley45clearEv @ 114
;	TTLowpassLinkwitzRiley4::updateSr()
	_ZN23TTLowpassLinkwitzRiley48updateSrEv @ 115
;	TTLowpassLinkwitzRiley4::TTLowpassLinkwitzRiley4(unsigned char)
	_ZN23TTLowpassLinkwitzRiley4C1Eh @ 116
;	TTLowpassLinkwitzRiley4::TTLowpassLinkwitzRiley4(unsigned char)
	_ZN23TTLowpassLinkwitzRiley4C2Eh @ 117
;	TTLowpassLinkwitzRiley4::~TTLowpassLinkwitzRiley4()
	_ZN23TTLowpassLinkwitzRiley4D0Ev @ 118
;	TTLowpassLinkwitzRiley4::~TTLowpassLinkwitzRiley4()
	_ZN23TTLowpassLinkwitzRiley4D1Ev @ 119
;	TTLowpassLinkwitzRiley4::~TTLowpassLinkwitzRiley4()
	_ZN23TTLowpassLinkwitzRiley4D2Ev @ 120
;	TTBandRejectButterworth2::processAudio(TTAudioSignal&, TTAudioSignal&)
	_ZN24TTBandRejectButterworth212processAudioER13TTAudioSignalS1_ @ 121
;	TTBandRejectButterworth2::setFrequency(TTValue const&)
	_ZN24TTBandRejectButterworth212setFrequencyERK7TTValue @ 122
;	TTBandRejectButterworth2::updateMaxNumChannels()
	_ZN24TTBandRejectButterworth220updateMaxNumChannelsEv @ 123
;	TTBandRejectButterworth2::calculateCoefficients()
	_ZN24TTBandRejectButterworth221calculateCoefficientsEv @ 124
;	TTBandRejectButterworth2::setQ(TTValue const&)
	_ZN24TTBandRejectButterworth24setQERK7TTValue @ 125
;	TTBandRejectButterworth2::clear()
	_ZN24TTBandRejectButterworth25clearEv @ 126
;	TTBandRejectButterworth2::updateSr()
	_ZN24TTBandRejectButterworth28updateSrEv @ 127
;	TTBandRejectButterworth2::TTBandRejectButterworth2(unsigned char)
	_ZN24TTBandRejectButterworth2C1Eh @ 128
;	TTBandRejectButterworth2::TTBandRejectButterworth2(unsigned char)
	_ZN24TTBandRejectButterworth2C2Eh @ 129
;	TTBandRejectButterworth2::~TTBandRejectButterworth2()
	_ZN24TTBandRejectButterworth2D0Ev @ 130
;	TTBandRejectButterworth2::~TTBandRejectButterworth2()
	_ZN24TTBandRejectButterworth2D1Ev @ 131
;	TTBandRejectButterworth2::~TTBandRejectButterworth2()
	_ZN24TTBandRejectButterworth2D2Ev @ 132
;	TTHighpassLinkwitzRiley4::processAudio(TTAudioSignal&, TTAudioSignal&)
	_ZN24TTHighpassLinkwitzRiley412processAudioER13TTAudioSignalS1_ @ 133
;	TTHighpassLinkwitzRiley4::setFrequency(TTValue const&)
	_ZN24TTHighpassLinkwitzRiley412setFrequencyERK7TTValue @ 134
;	TTHighpassLinkwitzRiley4::updateMaxNumChannels()
	_ZN24TTHighpassLinkwitzRiley420updateMaxNumChannelsEv @ 135
;	TTHighpassLinkwitzRiley4::clear()
	_ZN24TTHighpassLinkwitzRiley45clearEv @ 136
;	TTHighpassLinkwitzRiley4::updateSr()
	_ZN24TTHighpassLinkwitzRiley48updateSrEv @ 137
;	TTHighpassLinkwitzRiley4::TTHighpassLinkwitzRiley4(unsigned char)
	_ZN24TTHighpassLinkwitzRiley4C1Eh @ 138
;	TTHighpassLinkwitzRiley4::TTHighpassLinkwitzRiley4(unsigned char)
	_ZN24TTHighpassLinkwitzRiley4C2Eh @ 139
;	TTHighpassLinkwitzRiley4::~TTHighpassLinkwitzRiley4()
	_ZN24TTHighpassLinkwitzRiley4D0Ev @ 140
;	TTHighpassLinkwitzRiley4::~TTHighpassLinkwitzRiley4()
	_ZN24TTHighpassLinkwitzRiley4D1Ev @ 141
;	TTHighpassLinkwitzRiley4::~TTHighpassLinkwitzRiley4()
	_ZN24TTHighpassLinkwitzRiley4D2Ev @ 142
;	TTGain::processAudio(TTAudioSignal&, TTAudioSignal&)
	_ZN6TTGain12processAudioER13TTAudioSignalS1_ @ 143
;	TTGain::getGain(TTValue&)
	_ZN6TTGain7getGainER7TTValue @ 144
;	TTGain::setGain(TTValue const&)
	_ZN6TTGain7setGainERK7TTValue @ 145
;	TTGain::TTGain(unsigned char)
	_ZN6TTGainC1Eh @ 146
;	TTGain::TTGain(unsigned char)
	_ZN6TTGainC2Eh @ 147
;	TTGain::~TTGain()
	_ZN6TTGainD0Ev @ 148
;	TTGain::~TTGain()
	_ZN6TTGainD1Ev @ 149
;	TTGain::~TTGain()
	_ZN6TTGainD2Ev @ 150
;	TTRamp::setRampTime(TTValue const&)
	_ZN6TTRamp11setRampTimeERK7TTValue @ 151
;	TTRamp::setupProcess()
	_ZN6TTRamp12setupProcessEv @ 152
;	TTRamp::rampInSamples(TTValue const&)
	_ZN6TTRamp13rampInSamplesERK7TTValue @ 153
;	TTRamp::processSampleAccurateUp(TTAudioSignal&, TTAudioSignal&)
	_ZN6TTRamp23processSampleAccurateUpER13TTAudioSignalS1_ @ 154
;	TTRamp::processVectorAccurateUp(TTAudioSignal&, TTAudioSignal&)
	_ZN6TTRamp23processVectorAccurateUpER13TTAudioSignalS1_ @ 155
;	TTRamp::processSampleAccurateDown(TTAudioSignal&, TTAudioSignal&)
	_ZN6TTRamp25processSampleAccurateDownER13TTAudioSignalS1_ @ 156
;	TTRamp::processVectorAccurateDown(TTAudioSignal&, TTAudioSignal&)
	_ZN6TTRamp25processVectorAccurateDownER13TTAudioSignalS1_ @ 157
;	TTRamp::stop()
	_ZN6TTRamp4stopEv @ 158
;	TTRamp::setMode(TTValue const&)
	_ZN6TTRamp7setModeERK7TTValue @ 159
;	TTRamp::setStep()
	_ZN6TTRamp7setStepEv @ 160
;	TTRamp::TTRamp(unsigned char)
	_ZN6TTRampC1Eh @ 161
;	TTRamp::TTRamp(unsigned char)
	_ZN6TTRampC2Eh @ 162
;	TTRamp::~TTRamp()
	_ZN6TTRampD0Ev @ 163
;	TTRamp::~TTRamp()
	_ZN6TTRampD1Ev @ 164
;	TTRamp::~TTRamp()
	_ZN6TTRampD2Ev @ 165
;	TTValue::setNumValues(unsigned short)
	_ZN7TTValue12setNumValuesEt @ 166
;	TTValue::set(unsigned short, TTObject const&)
	_ZN7TTValue3setEtRK8TTObject @ 167
;	TTValue::set(unsigned short, TTSymbol const&)
	_ZN7TTValue3setEtRK8TTSymbol @ 168
;	TTValue::set(unsigned short, signed char)
	_ZN7TTValue3setEta @ 169
;	TTValue::set(unsigned short, bool)
	_ZN7TTValue3setEtb @ 170
;	TTValue::set(unsigned short, double)
	_ZN7TTValue3setEtd @ 171
;	TTValue::set(unsigned short, float)
	_ZN7TTValue3setEtf @ 172
;	TTValue::set(unsigned short, unsigned char)
	_ZN7TTValue3setEth @ 173
;	TTValue::set(unsigned short, int)
	_ZN7TTValue3setEti @ 174
;	TTValue::set(unsigned short, long)
	_ZN7TTValue3setEtl @ 175
;	TTValue::set(unsigned short, unsigned long)
	_ZN7TTValue3setEtm @ 176
;	TTValue::set(unsigned short, unsigned short)
	_ZN7TTValue3setEtt @ 177
;	TTValue::set(unsigned short, long long)
	_ZN7TTValue3setEtx @ 178
;	TTValue::set(unsigned short, unsigned long long)
	_ZN7TTValue3setEty @ 179
;	TTValue::setType(TTDataType)
	_ZN7TTValue7setTypeE10TTDataType @ 180
;	TTValue::TTValue(TTObject&)
	_ZN7TTValueC1ER8TTObject @ 181
;	TTValue::TTValue(TTSymbol&)
	_ZN7TTValueC1ER8TTSymbol @ 182
;	TTValue::TTValue(signed char)
	_ZN7TTValueC1Ea @ 183
;	TTValue::TTValue(bool)
	_ZN7TTValueC1Eb @ 184
;	TTValue::TTValue(double)
	_ZN7TTValueC1Ed @ 185
;	TTValue::TTValue(float)
	_ZN7TTValueC1Ef @ 186
;	TTValue::TTValue(unsigned char)
	_ZN7TTValueC1Eh @ 187
;	TTValue::TTValue(int)
	_ZN7TTValueC1Ei @ 188
;	TTValue::TTValue(long)
	_ZN7TTValueC1El @ 189
;	TTValue::TTValue(unsigned long)
	_ZN7TTValueC1Em @ 190
;	TTValue::TTValue(unsigned short)
	_ZN7TTValueC1Et @ 191
;	TTValue::TTValue()
	_ZN7TTValueC1Ev @ 192
;	TTValue::TTValue(long long)
	_ZN7TTValueC1Ex @ 193
;	TTValue::TTValue(unsigned long long)
	_ZN7TTValueC1Ey @ 194
;	TTValue::TTValue(TTObject&)
	_ZN7TTValueC2ER8TTObject @ 195
;	TTValue::TTValue(TTSymbol&)
	_ZN7TTValueC2ER8TTSymbol @ 196
;	TTValue::TTValue(signed char)
	_ZN7TTValueC2Ea @ 197
;	TTValue::TTValue(bool)
	_ZN7TTValueC2Eb @ 198
;	TTValue::TTValue(double)
	_ZN7TTValueC2Ed @ 199
;	TTValue::TTValue(float)
	_ZN7TTValueC2Ef @ 200
;	TTValue::TTValue(unsigned char)
	_ZN7TTValueC2Eh @ 201
;	TTValue::TTValue(int)
	_ZN7TTValueC2Ei @ 202
;	TTValue::TTValue(long)
	_ZN7TTValueC2El @ 203
;	TTValue::TTValue(unsigned long)
	_ZN7TTValueC2Em @ 204
;	TTValue::TTValue(unsigned short)
	_ZN7TTValueC2Et @ 205
;	TTValue::TTValue()
	_ZN7TTValueC2Ev @ 206
;	TTValue::TTValue(long long)
	_ZN7TTValueC2Ex @ 207
;	TTValue::TTValue(unsigned long long)
	_ZN7TTValueC2Ey @ 208
;	TTValue::~TTValue()
	_ZN7TTValueD0Ev @ 209
;	TTValue::~TTValue()
	_ZN7TTValueD1Ev @ 210
;	TTValue::~TTValue()
	_ZN7TTValueD2Ev @ 211
;	TTValue::operator=(TTObject&)
	_ZN7TTValueaSER8TTObject @ 212
;	TTValue::operator=(TTSymbol&)
	_ZN7TTValueaSER8TTSymbol @ 213
;	TTValue::operator=(TTValue const&)
	_ZN7TTValueaSERKS_ @ 214
;	TTValue::operator=(signed char)
	_ZN7TTValueaSEa @ 215
;	TTValue::operator=(bool)
	_ZN7TTValueaSEb @ 216
;	TTValue::operator=(double)
	_ZN7TTValueaSEd @ 217
;	TTValue::operator=(float)
	_ZN7TTValueaSEf @ 218
;	TTValue::operator=(unsigned char)
	_ZN7TTValueaSEh @ 219
;	TTValue::operator=(int)
	_ZN7TTValueaSEi @ 220
;	TTValue::operator=(long)
	_ZN7TTValueaSEl @ 221
;	TTValue::operator=(unsigned long)
	_ZN7TTValueaSEm @ 222
;	TTValue::operator=(unsigned short)
	_ZN7TTValueaSEt @ 223
;	TTValue::operator=(long long)
	_ZN7TTValueaSEx @ 224
;	TTValue::operator=(unsigned long long)
	_ZN7TTValueaSEy @ 225
;	TTGlobal::getVersion(TTValue&)
	_ZN8TTGlobal10getVersionER7TTValue @ 226
;	TTGlobal::TTGlobal()
	_ZN8TTGlobalC1Ev @ 227
;	TTGlobal::TTGlobal()
	_ZN8TTGlobalC2Ev @ 228
;	TTGlobal::~TTGlobal()
	_ZN8TTGlobalD0Ev @ 229
;	TTGlobal::~TTGlobal()
	_ZN8TTGlobalD1Ev @ 230
;	TTGlobal::~TTGlobal()
	_ZN8TTGlobalD2Ev @ 231
;	TTObject::sendMessage(TTSymbol const&)
	_ZN8TTObject11sendMessageERK8TTSymbol @ 232
;	TTObject::sendMessage(TTSymbol const&, TTValue&)
	_ZN8TTObject11sendMessageERK8TTSymbolR7TTValue @ 233
;	TTObject::registerMessage(TTSymbol const&, short (TTObject::*)(TTValue&, TTSymbol const&))
	_ZN8TTObject15registerMessageERK8TTSymbolMS_FsR7TTValueS2_E @ 234
;	TTObject::getAttributeValue(TTSymbol const&, TTValue&)
	_ZN8TTObject17getAttributeValueERK8TTSymbolR7TTValue @ 235
;	TTObject::getAttributeValue(TTSymbol const&, TTSymbol&)
	_ZN8TTObject17getAttributeValueERK8TTSymbolRS0_ @ 236
;	TTObject::getAttributeValue(TTSymbol const&, signed char&)
	_ZN8TTObject17getAttributeValueERK8TTSymbolRa @ 237
;	TTObject::getAttributeValue(TTSymbol const&, double&)
	_ZN8TTObject17getAttributeValueERK8TTSymbolRd @ 238
;	TTObject::getAttributeValue(TTSymbol const&, float&)
	_ZN8TTObject17getAttributeValueERK8TTSymbolRf @ 239
;	TTObject::getAttributeValue(TTSymbol const&, unsigned char&)
	_ZN8TTObject17getAttributeValueERK8TTSymbolRh @ 240
;	TTObject::getAttributeValue(TTSymbol const&, int&)
	_ZN8TTObject17getAttributeValueERK8TTSymbolRi @ 241
;	TTObject::getAttributeValue(TTSymbol const&, long&)
	_ZN8TTObject17getAttributeValueERK8TTSymbolRl @ 242
;	TTObject::getAttributeValue(TTSymbol const&, unsigned long&)
	_ZN8TTObject17getAttributeValueERK8TTSymbolRm @ 243
;	TTObject::getAttributeValue(TTSymbol const&, unsigned short&)
	_ZN8TTObject17getAttributeValueERK8TTSymbolRt @ 244
;	TTObject::getAttributeValue(TTSymbol const&, long long&)
	_ZN8TTObject17getAttributeValueERK8TTSymbolRx @ 245
;	TTObject::getAttributeValue(TTSymbol const&, unsigned long long&)
	_ZN8TTObject17getAttributeValueERK8TTSymbolRy @ 246
;	TTObject::registerAttribute(TTSymbol const&, TTDataType, void*)
	_ZN8TTObject17registerAttributeERK8TTSymbol10TTDataTypePv @ 247
;	TTObject::registerAttribute(TTSymbol const&, TTDataType, void*, short (TTObject::*)(TTValue&, TTAttribute const&))
	_ZN8TTObject17registerAttributeERK8TTSymbol10TTDataTypePvMS_FsR7TTValueRK11TTAttributeE @ 248
;	TTObject::registerAttribute(TTSymbol const&, TTDataType, void*, short (TTObject::*)(TTValue&, TTAttribute const&), short (TTObject::*)(TTValue const&, TTAttribute const&))
	_ZN8TTObject17registerAttributeERK8TTSymbol10TTDataTypePvMS_FsR7TTValueRK11TTAttributeEMS_FsRKS5_S9_E @ 249
;	TTObject::registerAttribute(TTSymbol const&, TTDataType, void*, short (TTObject::*)(TTValue const&, TTAttribute const&))
	_ZN8TTObject17registerAttributeERK8TTSymbol10TTDataTypePvMS_FsRK7TTValueRK11TTAttributeE @ 250
;	TTObject::setAttributeValue(TTSymbol const&, TTValue const&)
	_ZN8TTObject17setAttributeValueERK8TTSymbolRK7TTValue @ 251
;	TTObject::setAttributeValue(TTSymbol const&, signed char const&)
	_ZN8TTObject17setAttributeValueERK8TTSymbolRKa @ 252
;	TTObject::setAttributeValue(TTSymbol const&, double const&)
	_ZN8TTObject17setAttributeValueERK8TTSymbolRKd @ 253
;	TTObject::setAttributeValue(TTSymbol const&, float const&)
	_ZN8TTObject17setAttributeValueERK8TTSymbolRKf @ 254
;	TTObject::setAttributeValue(TTSymbol const&, unsigned char const&)
	_ZN8TTObject17setAttributeValueERK8TTSymbolRKh @ 255
;	TTObject::setAttributeValue(TTSymbol const&, int const&)
	_ZN8TTObject17setAttributeValueERK8TTSymbolRKi @ 256
;	TTObject::setAttributeValue(TTSymbol const&, long const&)
	_ZN8TTObject17setAttributeValueERK8TTSymbolRKl @ 257
;	TTObject::setAttributeValue(TTSymbol const&, unsigned long const&)
	_ZN8TTObject17setAttributeValueERK8TTSymbolRKm @ 258
;	TTObject::setAttributeValue(TTSymbol const&, unsigned short const&)
	_ZN8TTObject17setAttributeValueERK8TTSymbolRKt @ 259
;	TTObject::setAttributeValue(TTSymbol const&, long long const&)
	_ZN8TTObject17setAttributeValueERK8TTSymbolRKx @ 260
;	TTObject::setAttributeValue(TTSymbol const&, unsigned long long const&)
	_ZN8TTObject17setAttributeValueERK8TTSymbolRKy @ 261
;	TTObject::setAttributeValue(TTSymbol const&, TTSymbol const&)
	_ZN8TTObject17setAttributeValueERK8TTSymbolS2_ @ 262
;	TTObject::getGlobalAttributeValue(TTSymbol const&, TTValue&)
	_ZN8TTObject23getGlobalAttributeValueERK8TTSymbolR7TTValue @ 263
;	TTObject::registerGlobalAttribute(TTSymbol const&, TTDataType, void*)
	_ZN8TTObject23registerGlobalAttributeERK8TTSymbol10TTDataTypePv @ 264
;	TTObject::registerGlobalAttribute(TTSymbol const&, TTDataType, void*, short (TTObject::*)(TTValue&, TTAttribute const&), short (TTObject::*)(TTValue const&, TTAttribute const&))
	_ZN8TTObject23registerGlobalAttributeERK8TTSymbol10TTDataTypePvMS_FsR7TTValueRK11TTAttributeEMS_FsRKS5_S9_E @ 265
;	TTObject::setGlobalAttributeValue(TTSymbol const&, TTValue&)
	_ZN8TTObject23setGlobalAttributeValueERK8TTSymbolR7TTValue @ 266
;	TTObject::TTObject()
	_ZN8TTObjectC1Ev @ 267
;	TTObject::TTObject()
	_ZN8TTObjectC2Ev @ 268
;	TTObject::~TTObject()
	_ZN8TTObjectD0Ev @ 269
;	TTObject::~TTObject()
	_ZN8TTObjectD1Ev @ 270
;	TTObject::~TTObject()
	_ZN8TTObjectD2Ev @ 271
;	TTObject::operator=(TTObject const&)
	_ZN8TTObjectaSERKS_ @ 272
;	TTSymbol::symbolTable
	_ZN8TTSymbol11symbolTableE @ 273 DATA
;	TTSymbol::symbolTableSize
	_ZN8TTSymbol15symbolTableSizeE @ 274 DATA
;	TTSymbol::init(char*)
	_ZN8TTSymbol4initEPc @ 275
;	TTSymbol::getId()
	_ZN8TTSymbol5getIdEv @ 276
;	TTSymbol::lookup(char*)
	_ZN8TTSymbol6lookupEPc @ 277
;	TTSymbol::getString()
	_ZN8TTSymbol9getStringEv @ 278
;	TTSymbol::TTSymbol(char*)
	_ZN8TTSymbolC1EPc @ 279
;	TTSymbol::TTSymbol(TTSymbol const&)
	_ZN8TTSymbolC1ERKS_ @ 280
;	TTSymbol::TTSymbol()
	_ZN8TTSymbolC1Ev @ 281
;	TTSymbol::TTSymbol(char*)
	_ZN8TTSymbolC2EPc @ 282
;	TTSymbol::TTSymbol(TTSymbol const&)
	_ZN8TTSymbolC2ERKS_ @ 283
;	TTSymbol::TTSymbol()
	_ZN8TTSymbolC2Ev @ 284
;	TTSymbol::~TTSymbol()
	_ZN8TTSymbolD0Ev @ 285
;	TTSymbol::~TTSymbol()
	_ZN8TTSymbolD1Ev @ 286
;	TTSymbol::~TTSymbol()
	_ZN8TTSymbolD2Ev @ 287
;	TTSymbol::operator=(TTSymbol const&)
	_ZN8TTSymbolaSERKS_ @ 288
;	TTDCBlock::processAudio(TTAudioSignal&, TTAudioSignal&)
	_ZN9TTDCBlock12processAudioER13TTAudioSignalS1_ @ 289
;	TTDCBlock::updateMaxNumChannels()
	_ZN9TTDCBlock20updateMaxNumChannelsEv @ 290
;	TTDCBlock::clear()
	_ZN9TTDCBlock5clearEv @ 291
;	TTDCBlock::TTDCBlock(unsigned char)
	_ZN9TTDCBlockC1Eh @ 292
;	TTDCBlock::TTDCBlock(unsigned char)
	_ZN9TTDCBlockC2Eh @ 293
;	TTDCBlock::~TTDCBlock()
	_ZN9TTDCBlockD0Ev @ 294
;	TTDCBlock::~TTDCBlock()
	_ZN9TTDCBlockD1Ev @ 295
;	TTDCBlock::~TTDCBlock()
	_ZN9TTDCBlockD2Ev @ 296
;	TTDegrade::setBitdepth(TTValue const&)
	_ZN9TTDegrade11setBitdepthERK7TTValue @ 297
;	TTDegrade::processAudio(TTAudioSignal&, TTAudioSignal&)
	_ZN9TTDegrade12processAudioER13TTAudioSignalS1_ @ 298
;	TTDegrade::updateMaxNumChannels()
	_ZN9TTDegrade20updateMaxNumChannelsEv @ 299
;	TTDegrade::TTDegrade(unsigned char)
	_ZN9TTDegradeC1Eh @ 300
;	TTDegrade::TTDegrade(unsigned char)
	_ZN9TTDegradeC2Eh @ 301
;	TTDegrade::~TTDegrade()
	_ZN9TTDegradeD0Ev @ 302
;	TTDegrade::~TTDegrade()
	_ZN9TTDegradeD1Ev @ 303
;	TTDegrade::~TTDegrade()
	_ZN9TTDegradeD2Ev @ 304
;	TTElement::logMessage(char*)
	_ZN9TTElement10logMessageEPc @ 305
;	TTElement::antiDenormal(double)
	_ZN9TTElement12antiDenormalEd @ 306
;	TTElement::kTTLookupEqualPower
	_ZN9TTElement19kTTLookupEqualPowerE @ 307 DATA
;	TTElement::kTTAntiDenormalValue
	_ZN9TTElement20kTTAntiDenormalValueE @ 308 DATA
;	TTElement::kTTLookupQuarterSine
	_ZN9TTElement20kTTLookupQuarterSineE @ 309 DATA
;	TTElement::kTTLookupHalfPaddedwWelch
	_ZN9TTElement25kTTLookupHalfPaddedwWelchE @ 310 DATA
;	double TTElement::clip<double>(double, double, double)
	_ZN9TTElement4clipIdEET_S1_S1_S1_ @ 311
;	float TTElement::clip<float>(float, float, float)
	_ZN9TTElement4clipIfEET_S1_S1_S1_ @ 312
;	int TTElement::clip<int>(int, int, int)
	_ZN9TTElement4clipIiEET_S1_S1_S1_ @ 313
;	unsigned long TTElement::clip<unsigned long>(unsigned long, unsigned long, unsigned long)
	_ZN9TTElement4clipImEET_S1_S1_S1_ @ 314
;	TTElement::kTTPi
	_ZN9TTElement5kTTPiE @ 315 DATA
;	TTElement::round(double)
	_ZN9TTElement5roundEd @ 316
;	TTElement::round(float)
	_ZN9TTElement5roundEf @ 317
;	TTElement::kTTSqrt2
	_ZN9TTElement8kTTSqrt2E @ 318 DATA
;	TTElement::kTTTwoPi
	_ZN9TTElement8kTTTwoPiE @ 319 DATA
;	TTElement::logError(char*)
	_ZN9TTElement8logErrorEPc @ 320
;	TTElement::TTElement()
	_ZN9TTElementC1Ev @ 321
;	TTElement::TTElement()
	_ZN9TTElementC2Ev @ 322
;	TTElement::~TTElement()
	_ZN9TTElementD0Ev @ 323
;	TTElement::~TTElement()
	_ZN9TTElementD1Ev @ 324
;	TTElement::~TTElement()
	_ZN9TTElementD2Ev @ 325
;	TTElement::operator=(TTElement const&)
	_ZN9TTElementaSERKS_ @ 326
;	TTLimiter::getPostamp(TTValue&)
	_ZN9TTLimiter10getPostampER7TTValue @ 327
;	TTLimiter::setPostamp(TTValue const&)
	_ZN9TTLimiter10setPostampERK7TTValue @ 328
;	TTLimiter::setRecover()
	_ZN9TTLimiter10setRecoverEv @ 329
;	TTLimiter::setRelease(TTValue&)
	_ZN9TTLimiter10setReleaseER7TTValue @ 330
;	TTLimiter::getThreshold(TTValue&)
	_ZN9TTLimiter12getThresholdER7TTValue @ 331
;	TTLimiter::setDCBlocker(TTValue&)
	_ZN9TTLimiter12setDCBlockerER7TTValue @ 332
;	TTLimiter::setLookahead(TTValue&)
	_ZN9TTLimiter12setLookaheadER7TTValue @ 333
;	TTLimiter::setThreshold(TTValue const&)
	_ZN9TTLimiter12setThresholdERK7TTValue @ 334
;	TTLimiter::processNormal(TTAudioSignal&, TTAudioSignal&)
	_ZN9TTLimiter13processNormalER13TTAudioSignalS1_ @ 335
;	TTLimiter::processNoDCBlocking(TTAudioSignal&, TTAudioSignal&)
	_ZN9TTLimiter19processNoDCBlockingER13TTAudioSignalS1_ @ 336
;	TTLimiter::updateMaxNumChannels()
	_ZN9TTLimiter20updateMaxNumChannelsEv @ 337
;	TTLimiter::clear()
	_ZN9TTLimiter5clearEv @ 338
;	TTLimiter::setMode(TTValue&)
	_ZN9TTLimiter7setModeER7TTValue @ 339
;	TTLimiter::updateSr()
	_ZN9TTLimiter8updateSrEv @ 340
;	TTLimiter::getPreamp(TTValue&)
	_ZN9TTLimiter9getPreampER7TTValue @ 341
;	TTLimiter::setPreamp(TTValue const&)
	_ZN9TTLimiter9setPreampERK7TTValue @ 342
;	TTLimiter::TTLimiter(unsigned char)
	_ZN9TTLimiterC1Eh @ 343
;	TTLimiter::TTLimiter(unsigned char)
	_ZN9TTLimiterC2Eh @ 344
;	TTLimiter::~TTLimiter()
	_ZN9TTLimiterD0Ev @ 345
;	TTLimiter::~TTLimiter()
	_ZN9TTLimiterD1Ev @ 346
;	TTLimiter::~TTLimiter()
	_ZN9TTLimiterD2Ev @ 347
;	TTValue::getNumValues() const
	_ZNK7TTValue12getNumValuesEv @ 348
;	TTValue::get(unsigned short, TTObject&) const
	_ZNK7TTValue3getEtR8TTObject @ 349
;	TTValue::get(unsigned short, TTSymbol&) const
	_ZNK7TTValue3getEtR8TTSymbol @ 350
;	TTValue::get(unsigned short, signed char&) const
	_ZNK7TTValue3getEtRa @ 351
;	TTValue::get(unsigned short, bool&) const
	_ZNK7TTValue3getEtRb @ 352
;	TTValue::get(unsigned short, double&) const
	_ZNK7TTValue3getEtRd @ 353
;	TTValue::get(unsigned short, float&) const
	_ZNK7TTValue3getEtRf @ 354
;	TTValue::get(unsigned short, unsigned char&) const
	_ZNK7TTValue3getEtRh @ 355
;	TTValue::get(unsigned short, int&) const
	_ZNK7TTValue3getEtRi @ 356
;	TTValue::get(unsigned short, long&) const
	_ZNK7TTValue3getEtRl @ 357
;	TTValue::get(unsigned short, unsigned long&) const
	_ZNK7TTValue3getEtRm @ 358
;	TTValue::get(unsigned short, unsigned short&) const
	_ZNK7TTValue3getEtRt @ 359
;	TTValue::get(unsigned short, long long&) const
	_ZNK7TTValue3getEtRx @ 360
;	TTValue::get(unsigned short, unsigned long long&) const
	_ZNK7TTValue3getEtRy @ 361
;	TTValue::getType() const
	_ZNK7TTValue7getTypeEv @ 362
;	TTValue::operator TTObject&() const
	_ZNK7TTValuecvR8TTObjectEv @ 363
;	TTValue::operator TTSymbol&() const
	_ZNK7TTValuecvR8TTSymbolEv @ 364
;	TTValue::operator signed char() const
	_ZNK7TTValuecvaEv @ 365
;	TTValue::operator bool() const
	_ZNK7TTValuecvbEv @ 366
;	TTValue::operator double() const
	_ZNK7TTValuecvdEv @ 367
;	TTValue::operator float() const
	_ZNK7TTValuecvfEv @ 368
;	TTValue::operator unsigned char() const
	_ZNK7TTValuecvhEv @ 369
;	TTValue::operator int() const
	_ZNK7TTValuecviEv @ 370
;	TTValue::operator long() const
	_ZNK7TTValuecvlEv @ 371
;	TTValue::operator unsigned long() const
	_ZNK7TTValuecvmEv @ 372
;	TTValue::operator unsigned short() const
	_ZNK7TTValuecvtEv @ 373
;	TTValue::operator long long() const
	_ZNK7TTValuecvxEv @ 374
;	TTValue::operator unsigned long long() const
	_ZNK7TTValuecvyEv @ 375
;	unsigned int const& std::min<unsigned int>(unsigned int const&, unsigned int const&)
	_ZSt3minIjERKT_S2_S2_ @ 376
;	typeinfo for TTAttribute
	_ZTI11TTAttribute @ 377 DATA
;	typeinfo for TTCrossfade
	_ZTI11TTCrossfade @ 378 DATA
;	typeinfo for TTOverdrive
	_ZTI11TTOverdrive @ 379 DATA
;	typeinfo for TTAudioObject
	_ZTI13TTAudioObject @ 380 DATA
;	typeinfo for TTAudioSignal
	_ZTI13TTAudioSignal @ 381 DATA
;	typeinfo for TTLowpassOnePole
	_ZTI16TTLowpassOnePole @ 382 DATA
;	typeinfo for TTLowpassButterworth2
	_ZTI21TTLowpassButterworth2 @ 383 DATA
;	typeinfo for TTBandpassButterworth2
	_ZTI22TTBandpassButterworth2 @ 384 DATA
;	typeinfo for TTHighpassButterworth2
	_ZTI22TTHighpassButterworth2 @ 385 DATA
;	typeinfo for TTLowpassLinkwitzRiley4
	_ZTI23TTLowpassLinkwitzRiley4 @ 386 DATA
;	typeinfo for TTBandRejectButterworth2
	_ZTI24TTBandRejectButterworth2 @ 387 DATA
;	typeinfo for TTHighpassLinkwitzRiley4
	_ZTI24TTHighpassLinkwitzRiley4 @ 388 DATA
;	typeinfo for TTGain
	_ZTI6TTGain @ 389 DATA
;	typeinfo for TTRamp
	_ZTI6TTRamp @ 390 DATA
;	typeinfo for TTValue
	_ZTI7TTValue @ 391 DATA
;	typeinfo for TTGlobal
	_ZTI8TTGlobal @ 392 DATA
;	typeinfo for TTObject
	_ZTI8TTObject @ 393 DATA
;	typeinfo for TTSymbol
	_ZTI8TTSymbol @ 394 DATA
;	typeinfo for TTDCBlock
	_ZTI9TTDCBlock @ 395 DATA
;	typeinfo for TTDegrade
	_ZTI9TTDegrade @ 396 DATA
;	typeinfo for TTElement
	_ZTI9TTElement @ 397 DATA
;	typeinfo for TTLimiter
	_ZTI9TTLimiter @ 398 DATA
;	typeinfo name for TTAttribute
	_ZTS11TTAttribute @ 399 DATA
;	typeinfo name for TTCrossfade
	_ZTS11TTCrossfade @ 400 DATA
;	typeinfo name for TTOverdrive
	_ZTS11TTOverdrive @ 401 DATA
;	typeinfo name for TTAudioObject
	_ZTS13TTAudioObject @ 402 DATA
;	typeinfo name for TTAudioSignal
	_ZTS13TTAudioSignal @ 403 DATA
;	typeinfo name for TTLowpassOnePole
	_ZTS16TTLowpassOnePole @ 404 DATA
;	typeinfo name for TTLowpassButterworth2
	_ZTS21TTLowpassButterworth2 @ 405 DATA
;	typeinfo name for TTBandpassButterworth2
	_ZTS22TTBandpassButterworth2 @ 406 DATA
;	typeinfo name for TTHighpassButterworth2
	_ZTS22TTHighpassButterworth2 @ 407 DATA
;	typeinfo name for TTLowpassLinkwitzRiley4
	_ZTS23TTLowpassLinkwitzRiley4 @ 408 DATA
;	typeinfo name for TTBandRejectButterworth2
	_ZTS24TTBandRejectButterworth2 @ 409 DATA
;	typeinfo name for TTHighpassLinkwitzRiley4
	_ZTS24TTHighpassLinkwitzRiley4 @ 410 DATA
;	typeinfo name for TTGain
	_ZTS6TTGain @ 411 DATA
;	typeinfo name for TTRamp
	_ZTS6TTRamp @ 412 DATA
;	typeinfo name for TTValue
	_ZTS7TTValue @ 413 DATA
;	typeinfo name for TTGlobal
	_ZTS8TTGlobal @ 414 DATA
;	typeinfo name for TTObject
	_ZTS8TTObject @ 415 DATA
;	typeinfo name for TTSymbol
	_ZTS8TTSymbol @ 416 DATA
;	typeinfo name for TTDCBlock
	_ZTS9TTDCBlock @ 417 DATA
;	typeinfo name for TTDegrade
	_ZTS9TTDegrade @ 418 DATA
;	typeinfo name for TTElement
	_ZTS9TTElement @ 419 DATA
;	typeinfo name for TTLimiter
	_ZTS9TTLimiter @ 420 DATA
;	vtable for TTAttribute
	_ZTV11TTAttribute @ 421 DATA
;	vtable for TTCrossfade
	_ZTV11TTCrossfade @ 422 DATA
;	vtable for TTOverdrive
	_ZTV11TTOverdrive @ 423 DATA
;	vtable for TTAudioObject
	_ZTV13TTAudioObject @ 424 DATA
;	vtable for TTAudioSignal
	_ZTV13TTAudioSignal @ 425 DATA
;	vtable for TTLowpassOnePole
	_ZTV16TTLowpassOnePole @ 426 DATA
;	vtable for TTLowpassButterworth2
	_ZTV21TTLowpassButterworth2 @ 427 DATA
;	vtable for TTBandpassButterworth2
	_ZTV22TTBandpassButterworth2 @ 428 DATA
;	vtable for TTHighpassButterworth2
	_ZTV22TTHighpassButterworth2 @ 429 DATA
;	vtable for TTLowpassLinkwitzRiley4
	_ZTV23TTLowpassLinkwitzRiley4 @ 430 DATA
;	vtable for TTBandRejectButterworth2
	_ZTV24TTBandRejectButterworth2 @ 431 DATA
;	vtable for TTHighpassLinkwitzRiley4
	_ZTV24TTHighpassLinkwitzRiley4 @ 432 DATA
;	vtable for TTGain
	_ZTV6TTGain @ 433 DATA
;	vtable for TTRamp
	_ZTV6TTRamp @ 434 DATA
;	vtable for TTValue
	_ZTV7TTValue @ 435 DATA
;	vtable for TTGlobal
	_ZTV8TTGlobal @ 436 DATA
;	vtable for TTObject
	_ZTV8TTObject @ 437 DATA
;	vtable for TTSymbol
	_ZTV8TTSymbol @ 438 DATA
;	vtable for TTDCBlock
	_ZTV9TTDCBlock @ 439 DATA
;	vtable for TTDegrade
	_ZTV9TTDegrade @ 440 DATA
;	vtable for TTElement
	_ZTV9TTElement @ 441 DATA
;	vtable for TTLimiter
	_ZTV9TTLimiter @ 442 DATA
;	operator==(TTSymbol const&, TTSymbol const&)
	_ZeqRK8TTSymbolS1_ @ 443
	kTTBoolNo @ 444 DATA
	kTTBoolYes @ 445 DATA
	kTTVal0 @ 446 DATA
	kTTVal1 @ 447 DATA
	ttGlobalObject @ 448 DATA
